target datalayout = "e-m:e-p270:32:32-p271:32:32-p272:64:64-i64:64-i128:128-f80:128-n8:16:32:64-S128"
target triple = "x86_64-pc-linux-gnu"

%struct.AVFormatContext = type { ptr, ptr, ptr, ptr, ptr, i32, i32, ptr, i32, ptr, i32, ptr, ptr, i64, i64, i64, i32, i32, i32, i64, i64, ptr, i32, i32, ptr, i32, i32, i32, i32, ptr, i64, i32, i32, %struct.AVIOInterruptCB, i32, i32, i32, i32, i64, i32, i32, i32, i32, i32, i32, i32, i32, i32, i32, i32, i32, i64, i32, i32, i32, i32, i32, ptr, ptr, ptr, ptr, i32, ptr, ptr, ptr, ptr, i32, ptr, ptr, i64, ptr, ptr, ptr, i64 }
%struct.AVIOInterruptCB = type { ptr, ptr }
%struct.AVStream = type { ptr, i32, i32, ptr, ptr, %struct.AVRational, i64, i64, i64, i32, i32, %struct.AVRational, ptr, %struct.AVRational, %struct.AVPacket, i32, %struct.AVRational, i32 }
%struct.AVPacket = type { ptr, i64, i64, ptr, i32, i32, i32, ptr, i32, i64, i64, ptr, ptr, %struct.AVRational }
%struct.AVRational = type { i32, i32 }
%struct.AVCodecParameters = type { i32, i32, i32, ptr, i32, ptr, i32, i32, i64, i32, i32, i32, i32, i32, i32, %struct.AVRational, %struct.AVRational, i32, i32, i32, i32, i32, i32, i32, %struct.AVChannelLayout, i32, i32, i32, i32, i32, i32 }
%struct.AVChannelLayout = type { i32, i32, %union.anon, ptr }
%union.anon = type { i64 }
%struct.STLContext = type { %struct.FFDemuxSubtitlesQueue }
%struct.FFDemuxSubtitlesQueue = type { ptr, i32, i32, i32, i32, i32 }

@.str.4 = private unnamed_addr constant [3 x i8] c"\0D\0A\00", align 1
@.str.5 = private unnamed_addr constant [39 x i8] c"%2d:%2d:%2d:%2d , %2d:%2d:%2d:%2d , %n\00", align 1

; Function Attrs: nounwind uwtable
define internal i64 @get_pts(ptr noundef %0, ptr noundef %1) #0 {
  %3 = alloca i64, align 8
  %4 = alloca ptr, align 8
  %5 = alloca ptr, align 8
  %6 = alloca i32, align 4
  %7 = alloca i32, align 4
  %8 = alloca i32, align 4
  %9 = alloca i32, align 4
  %10 = alloca i32, align 4
  %11 = alloca i32, align 4
  %12 = alloca i32, align 4
  %13 = alloca i32, align 4
  %14 = alloca i32, align 4
  %15 = alloca i64, align 8
  %16 = alloca i64, align 8
  %17 = alloca i32, align 4
  store ptr %0, ptr %4, align 8, !tbaa !59
  store ptr %1, ptr %5, align 8, !tbaa !61
  call void @llvm.lifetime.start.p0(i64 4, ptr %6) #6
  call void @llvm.lifetime.start.p0(i64 4, ptr %7) #6
  call void @llvm.lifetime.start.p0(i64 4, ptr %8) #6
  call void @llvm.lifetime.start.p0(i64 4, ptr %9) #6
  call void @llvm.lifetime.start.p0(i64 4, ptr %10) #6
  call void @llvm.lifetime.start.p0(i64 4, ptr %11) #6
  call void @llvm.lifetime.start.p0(i64 4, ptr %12) #6
  call void @llvm.lifetime.start.p0(i64 4, ptr %13) #6
  call void @llvm.lifetime.start.p0(i64 4, ptr %14) #6
  store i32 0, ptr %14, align 4, !tbaa !50
  %18 = load ptr, ptr %4, align 8, !tbaa !59
  %19 = load ptr, ptr %18, align 8, !tbaa !13
  %20 = call i32 (ptr, ptr, ...) @__isoc99_sscanf(ptr noundef %19, ptr noundef @.str.5, ptr noundef %6, ptr noundef %7, ptr noundef %8, ptr noundef %9, ptr noundef %10, ptr noundef %11, ptr noundef %12, ptr noundef %13, ptr noundef %14) #6
  %21 = icmp sge i32 %20, 8
  br i1 %21, label %22, label %65

22:                                               ; preds = %2
  %23 = load i32, ptr %14, align 4, !tbaa !50
  %24 = icmp sgt i32 %23, 0
  br i1 %24, label %25, label %65

25:                                               ; preds = %22
  call void @llvm.lifetime.start.p0(i64 8, ptr %15) #6
  %26 = load i32, ptr %6, align 4, !tbaa !50
  %27 = sext i32 %26 to i64
  %28 = mul nsw i64 %27, 3600
  %29 = load i32, ptr %7, align 4, !tbaa !50
  %30 = sext i32 %29 to i64
  %31 = mul nsw i64 %30, 60
  %32 = add nsw i64 %28, %31
  %33 = load i32, ptr %8, align 4, !tbaa !50
  %34 = sext i32 %33 to i64
  %35 = add nsw i64 %32, %34
  %36 = mul nsw i64 %35, 100
  %37 = load i32, ptr %9, align 4, !tbaa !50
  %38 = sext i32 %37 to i64
  %39 = add nsw i64 %36, %38
  store i64 %39, ptr %15, align 8, !tbaa !49
  call void @llvm.lifetime.start.p0(i64 8, ptr %16) #6
  %40 = load i32, ptr %10, align 4, !tbaa !50
  %41 = sext i32 %40 to i64
  %42 = mul nsw i64 %41, 3600
  %43 = load i32, ptr %11, align 4, !tbaa !50
  %44 = sext i32 %43 to i64
  %45 = mul nsw i64 %44, 60
  %46 = add nsw i64 %42, %45
  %47 = load i32, ptr %12, align 4, !tbaa !50
  %48 = sext i32 %47 to i64
  %49 = add nsw i64 %46, %48
  %50 = mul nsw i64 %49, 100
  %51 = load i32, ptr %13, align 4, !tbaa !50
  %52 = sext i32 %51 to i64
  %53 = add nsw i64 %50, %52
  store i64 %53, ptr %16, align 8, !tbaa !49
  %54 = load i64, ptr %16, align 8, !tbaa !49
  %55 = load i64, ptr %15, align 8, !tbaa !49
  %56 = sub nsw i64 %54, %55
  %57 = trunc i64 %56 to i32
  %58 = load ptr, ptr %5, align 8, !tbaa !61
  store i32 %57, ptr %58, align 4, !tbaa !50
  %59 = load i32, ptr %14, align 4, !tbaa !50
  %60 = load ptr, ptr %4, align 8, !tbaa !59
  %61 = load ptr, ptr %60, align 8, !tbaa !13
  %62 = sext i32 %59 to i64
  %63 = getelementptr inbounds i8, ptr %61, i64 %62
  store ptr %63, ptr %60, align 8, !tbaa !13
  %64 = load i64, ptr %15, align 8, !tbaa !49
  store i64 %64, ptr %3, align 8
  store i32 1, ptr %17, align 4
  call void @llvm.lifetime.end.p0(i64 8, ptr %16) #6
  call void @llvm.lifetime.end.p0(i64 8, ptr %15) #6
  br label %66

65:                                               ; preds = %22, %2
  store i64 -9223372036854775808, ptr %3, align 8
  store i32 1, ptr %17, align 4
  br label %66

66:                                               ; preds = %65, %25
  call void @llvm.lifetime.end.p0(i64 4, ptr %14) #6
  call void @llvm.lifetime.end.p0(i64 4, ptr %13) #6
  call void @llvm.lifetime.end.p0(i64 4, ptr %12) #6
  call void @llvm.lifetime.end.p0(i64 4, ptr %11) #6
  call void @llvm.lifetime.end.p0(i64 4, ptr %10) #6
  call void @llvm.lifetime.end.p0(i64 4, ptr %9) #6
  call void @llvm.lifetime.end.p0(i64 4, ptr %8) #6
  call void @llvm.lifetime.end.p0(i64 4, ptr %7) #6
  call void @llvm.lifetime.end.p0(i64 4, ptr %6) #6
  %67 = load i64, ptr %3, align 8
  ret i64 %67
}

; Function Attrs: alwaysinline nounwind uwtable
define internal i64 @avio_tell(ptr noundef %0) #4 {
  %2 = alloca ptr, align 8
  store ptr %0, ptr %2, align 8, !tbaa !58
  %3 = load ptr, ptr %2, align 8, !tbaa !58
  %4 = call i64 @avio_seek(ptr noundef %3, i64 noundef 0, i32 noundef 1)
  ret i64 %4
}

; Function Attrs: nounwind uwtable
define internal i32 @stl_read_header(ptr noundef %0) #0 {
  %2 = alloca i32, align 4
  %3 = alloca ptr, align 8
  %4 = alloca ptr, align 8
  %5 = alloca ptr, align 8
  %6 = alloca i32, align 4
  %7 = alloca [4096 x i8], align 16
  %8 = alloca ptr, align 8
  %9 = alloca i64, align 8
  %10 = alloca i32, align 4
  %11 = alloca i64, align 8
  %12 = alloca i32, align 4
  %13 = alloca ptr, align 8
  store ptr %0, ptr %3, align 8, !tbaa !17
  call void @llvm.lifetime.start.p0(i64 8, ptr %4) #6
  %14 = load ptr, ptr %3, align 8, !tbaa !17
  %15 = getelementptr inbounds nuw %struct.AVFormatContext, ptr %14, i32 0, i32 3
  %16 = load ptr, ptr %15, align 8, !tbaa !19
  store ptr %16, ptr %4, align 8, !tbaa !34
  call void @llvm.lifetime.start.p0(i64 8, ptr %5) #6
  %17 = load ptr, ptr %3, align 8, !tbaa !17
  %18 = call ptr @avformat_new_stream(ptr noundef %17, ptr noundef null)
  store ptr %18, ptr %5, align 8, !tbaa !35
  %19 = load ptr, ptr %5, align 8, !tbaa !35
  %20 = icmp ne ptr %19, null
  br i1 %20, label %22, label %21

21:                                               ; preds = %1
  store i32 -12, ptr %2, align 4
  store i32 1, ptr %6, align 4
  br label %92

22:                                               ; preds = %1
  %23 = load ptr, ptr %5, align 8, !tbaa !35
  call void @avpriv_set_pts_info(ptr noundef %23, i32 noundef 64, i32 noundef 1, i32 noundef 100)
  %24 = load ptr, ptr %5, align 8, !tbaa !35
  %25 = getelementptr inbounds nuw %struct.AVStream, ptr %24, i32 0, i32 3
  %26 = load ptr, ptr %25, align 8, !tbaa !37
  %27 = getelementptr inbounds nuw %struct.AVCodecParameters, ptr %26, i32 0, i32 0
  store i32 3, ptr %27, align 8, !tbaa !44
  %28 = load ptr, ptr %5, align 8, !tbaa !35
  %29 = getelementptr inbounds nuw %struct.AVStream, ptr %28, i32 0, i32 3
  %30 = load ptr, ptr %29, align 8, !tbaa !37
  %31 = getelementptr inbounds nuw %struct.AVCodecParameters, ptr %30, i32 0, i32 1
  store i32 94222, ptr %31, align 4, !tbaa !47
  br label %32

32:                                               ; preds = %87, %22
  %33 = load ptr, ptr %3, align 8, !tbaa !17
  %34 = getelementptr inbounds nuw %struct.AVFormatContext, ptr %33, i32 0, i32 4
  %35 = load ptr, ptr %34, align 8, !tbaa !48
  %36 = call i32 @avio_feof(ptr noundef %35)
  %37 = icmp ne i32 %36, 0
  %38 = xor i1 %37, true
  br i1 %38, label %39, label %88

39:                                               ; preds = %32
  call void @llvm.lifetime.start.p0(i64 4096, ptr %7) #6
  call void @llvm.lifetime.start.p0(i64 8, ptr %8) #6
  %40 = getelementptr inbounds [4096 x i8], ptr %7, i64 0, i64 0
  store ptr %40, ptr %8, align 8, !tbaa !13
  call void @llvm.lifetime.start.p0(i64 8, ptr %9) #6
  %41 = load ptr, ptr %3, align 8, !tbaa !17
  %42 = getelementptr inbounds nuw %struct.AVFormatContext, ptr %41, i32 0, i32 4
  %43 = load ptr, ptr %42, align 8, !tbaa !48
  %44 = call i64 @avio_tell(ptr noundef %43)
  store i64 %44, ptr %9, align 8, !tbaa !49
  call void @llvm.lifetime.start.p0(i64 4, ptr %10) #6
  %45 = load ptr, ptr %3, align 8, !tbaa !17
  %46 = getelementptr inbounds nuw %struct.AVFormatContext, ptr %45, i32 0, i32 4
  %47 = load ptr, ptr %46, align 8, !tbaa !48
  %48 = getelementptr inbounds [4096 x i8], ptr %7, i64 0, i64 0
  %49 = call i32 @ff_get_line(ptr noundef %47, ptr noundef %48, i32 noundef 4096)
  store i32 %49, ptr %10, align 4, !tbaa !50
  call void @llvm.lifetime.start.p0(i64 8, ptr %11) #6
  call void @llvm.lifetime.start.p0(i64 4, ptr %12) #6
  %50 = load i32, ptr %10, align 4, !tbaa !50
  %51 = icmp ne i32 %50, 0
  br i1 %51, label %53, label %52

52:                                               ; preds = %39
  store i32 3, ptr %6, align 4
  br label %85

53:                                               ; preds = %39
  %54 = getelementptr inbounds [4096 x i8], ptr %7, i64 0, i64 0
  %55 = call i64 @strcspn(ptr noundef %54, ptr noundef @.str.4) #7
  %56 = getelementptr inbounds nuw [4096 x i8], ptr %7, i64 0, i64 %55
  store i8 0, ptr %56, align 1, !tbaa !14
  %57 = call i64 @get_pts(ptr noundef %8, ptr noundef %12)
  store i64 %57, ptr %11, align 8, !tbaa !49
  %58 = load i64, ptr %11, align 8, !tbaa !49
  %59 = icmp ne i64 %58, -9223372036854775808
  br i1 %59, label %60, label %84

60:                                               ; preds = %53
  call void @llvm.lifetime.start.p0(i64 8, ptr %13) #6
  %61 = load ptr, ptr %4, align 8, !tbaa !34
  %62 = getelementptr inbounds nuw %struct.STLContext, ptr %61, i32 0, i32 0
  %63 = load ptr, ptr %8, align 8, !tbaa !13
  %64 = load ptr, ptr %8, align 8, !tbaa !13
  %65 = call i64 @strlen(ptr noundef %64) #7
  %66 = call ptr @ff_subtitles_queue_insert(ptr noundef %62, ptr noundef %63, i64 noundef %65, i32 noundef 0)
  store ptr %66, ptr %13, align 8, !tbaa !51
  %67 = load ptr, ptr %13, align 8, !tbaa !51
  %68 = icmp ne ptr %67, null
  br i1 %68, label %70, label %69

69:                                               ; preds = %60
  store i32 -12, ptr %2, align 4
  store i32 1, ptr %6, align 4
  br label %81

70:                                               ; preds = %60
  %71 = load i64, ptr %9, align 8, !tbaa !49
  %72 = load ptr, ptr %13, align 8, !tbaa !51
  %73 = getelementptr inbounds nuw %struct.AVPacket, ptr %72, i32 0, i32 10
  store i64 %71, ptr %73, align 8, !tbaa !53
  %74 = load i64, ptr %11, align 8, !tbaa !49
  %75 = load ptr, ptr %13, align 8, !tbaa !51
  %76 = getelementptr inbounds nuw %struct.AVPacket, ptr %75, i32 0, i32 1
  store i64 %74, ptr %76, align 8, !tbaa !54
  %77 = load i32, ptr %12, align 4, !tbaa !50
  %78 = sext i32 %77 to i64
  %79 = load ptr, ptr %13, align 8, !tbaa !51
  %80 = getelementptr inbounds nuw %struct.AVPacket, ptr %79, i32 0, i32 9
  store i64 %78, ptr %80, align 8, !tbaa !55
  store i32 0, ptr %6, align 4
  br label %81

81:                                               ; preds = %70, %69
  call void @llvm.lifetime.end.p0(i64 8, ptr %13) #6
  %82 = load i32, ptr %6, align 4
  switch i32 %82, label %85 [
    i32 0, label %83
  ]

83:                                               ; preds = %81
  br label %84

84:                                               ; preds = %83, %53
  store i32 0, ptr %6, align 4
  br label %85

85:                                               ; preds = %84, %81, %52
  call void @llvm.lifetime.end.p0(i64 4, ptr %12) #6
  call void @llvm.lifetime.end.p0(i64 8, ptr %11) #6
  call void @llvm.lifetime.end.p0(i64 4, ptr %10) #6
  call void @llvm.lifetime.end.p0(i64 8, ptr %9) #6
  call void @llvm.lifetime.end.p0(i64 8, ptr %8) #6
  call void @llvm.lifetime.end.p0(i64 4096, ptr %7) #6
  %86 = load i32, ptr %6, align 4
  switch i32 %86, label %92 [
    i32 0, label %87
    i32 3, label %88
  ]

87:                                               ; preds = %85
  br label %32, !llvm.loop !56

88:                                               ; preds = %85, %32
  %89 = load ptr, ptr %3, align 8, !tbaa !17
  %90 = load ptr, ptr %4, align 8, !tbaa !34
  %91 = getelementptr inbounds nuw %struct.STLContext, ptr %90, i32 0, i32 0
  call void @ff_subtitles_queue_finalize(ptr noundef %89, ptr noundef %91)
  store i32 0, ptr %2, align 4
  store i32 1, ptr %6, align 4
  br label %92

92:                                               ; preds = %88, %85, %21
  call void @llvm.lifetime.end.p0(i64 8, ptr %5) #6
  call void @llvm.lifetime.end.p0(i64 8, ptr %4) #6
  %93 = load i32, ptr %2, align 4
  ret i32 %93
}