; Function Attrs: nounwind uwtable
define internal range(i32 -12, 1) i32 @stl_read_header(ptr noundef %0) #1 {
  %2 = alloca i32, align 4
  %3 = alloca i32, align 4
  %4 = alloca i32, align 4
  %5 = alloca i32, align 4
  %6 = alloca i32, align 4
  %7 = alloca i32, align 4
  %8 = alloca i32, align 4
  %9 = alloca i32, align 4
  %10 = alloca i32, align 4
  %11 = alloca [4096 x i8], align 16
  %12 = getelementptr inbounds nuw i8, ptr %0, i64 24
  %13 = load ptr, ptr %12, align 8, !tbaa !15
  %14 = tail call ptr @avformat_new_stream(ptr noundef %0, ptr noundef null) #6
  %.not = icmp eq ptr %14, null
  br i1 %.not, label %73, label %15

15:                                               ; preds = %1
  tail call void @avpriv_set_pts_info(ptr noundef nonnull %14, i32 noundef 64, i32 noundef 1, i32 noundef 100) #6
  %16 = getelementptr inbounds nuw i8, ptr %14, i64 16
  %17 = load ptr, ptr %16, align 8, !tbaa !30
  store i32 3, ptr %17, align 8, !tbaa !37
  %18 = getelementptr inbounds nuw i8, ptr %17, i64 4
  store i32 94222, ptr %18, align 4, !tbaa !40
  %19 = getelementptr inbounds nuw i8, ptr %0, i64 32
  %20 = load ptr, ptr %19, align 8, !tbaa !41
  %21 = tail call i32 @avio_feof(ptr noundef %20) #6
  %.not2744 = icmp eq i32 %21, 0
  br i1 %.not2744, label %.lr.ph, label %.loopexit

.lr.ph:                                           ; preds = %15, %.critedge
  call void @llvm.lifetime.start.p0(i64 4096, ptr nonnull %11) #6
  %22 = load ptr, ptr %19, align 8, !tbaa !41
  %23 = call i64 @avio_seek(ptr noundef %22, i64 noundef 0, i32 noundef 1) #6
  %24 = load ptr, ptr %19, align 8, !tbaa !41
  %25 = call i32 @ff_get_line(ptr noundef %24, ptr noundef nonnull %11, i32 noundef 4096) #6
  %.not28 = icmp eq i32 %25, 0
  br i1 %.not28, label %.critedge.thread41, label %26

.critedge.thread41:                               ; preds = %.lr.ph
  call void @llvm.lifetime.end.p0(i64 4096, ptr nonnull %11) #6
  br label %.loopexit

26:                                               ; preds = %.lr.ph
  %27 = call i64 @strcspn(ptr noundef nonnull %11, ptr noundef nonnull @.str.4) #7
  %28 = getelementptr inbounds nuw [4096 x i8], ptr %11, i64 0, i64 %27
  store i8 0, ptr %28, align 1, !tbaa !11
  call void @llvm.lifetime.start.p0(i64 4, ptr nonnull %2) #6
  call void @llvm.lifetime.start.p0(i64 4, ptr nonnull %3) #6
  call void @llvm.lifetime.start.p0(i64 4, ptr nonnull %4) #6
  call void @llvm.lifetime.start.p0(i64 4, ptr nonnull %5) #6
  call void @llvm.lifetime.start.p0(i64 4, ptr nonnull %6) #6
  call void @llvm.lifetime.start.p0(i64 4, ptr nonnull %7) #6
  call void @llvm.lifetime.start.p0(i64 4, ptr nonnull %8) #6
  call void @llvm.lifetime.start.p0(i64 4, ptr nonnull %9) #6
  call void @llvm.lifetime.start.p0(i64 4, ptr nonnull %10) #6
  store i32 0, ptr %10, align 4, !tbaa !42
  %29 = call i32 (ptr, ptr, ...) @__isoc99_sscanf(ptr noundef nonnull %11, ptr noundef nonnull @.str.5, ptr noundef nonnull %2, ptr noundef nonnull %3, ptr noundef nonnull %4, ptr noundef nonnull %5, ptr noundef nonnull %6, ptr noundef nonnull %7, ptr noundef nonnull %8, ptr noundef nonnull %9, ptr noundef nonnull %10) #6
  %30 = icmp sgt i32 %29, 7
  %31 = load i32, ptr %10, align 4
  %32 = icmp sgt i32 %31, 0
  %or.cond.i = select i1 %30, i1 %32, i1 false
  br i1 %or.cond.i, label %get_pts.exit, label %get_pts.exit.thread

get_pts.exit.thread:                              ; preds = %26
  call void @llvm.lifetime.end.p0(i64 4, ptr nonnull %10) #6
  call void @llvm.lifetime.end.p0(i64 4, ptr nonnull %9) #6
  call void @llvm.lifetime.end.p0(i64 4, ptr nonnull %8) #6
  call void @llvm.lifetime.end.p0(i64 4, ptr nonnull %7) #6
  call void @llvm.lifetime.end.p0(i64 4, ptr nonnull %6) #6
  call void @llvm.lifetime.end.p0(i64 4, ptr nonnull %5) #6
  call void @llvm.lifetime.end.p0(i64 4, ptr nonnull %4) #6
  call void @llvm.lifetime.end.p0(i64 4, ptr nonnull %3) #6
  call void @llvm.lifetime.end.p0(i64 4, ptr nonnull %2) #6
  br label %.critedge

get_pts.exit:                                     ; preds = %26
  %33 = load i32, ptr %2, align 4, !tbaa !42
  %34 = load i32, ptr %3, align 4, !tbaa !42
  %35 = load i32, ptr %4, align 4, !tbaa !42
  %36 = load i32, ptr %5, align 4, !tbaa !42
  %37 = load i32, ptr %6, align 4, !tbaa !42
  %38 = load i32, ptr %7, align 4, !tbaa !42
  %39 = load i32, ptr %8, align 4, !tbaa !42
  %40 = load i32, ptr %9, align 4, !tbaa !42
  %41 = zext nneg i32 %31 to i64
  %42 = getelementptr inbounds nuw i8, ptr %11, i64 %41
  call void @llvm.lifetime.end.p0(i64 4, ptr nonnull %10) #6
  call void @llvm.lifetime.end.p0(i64 4, ptr nonnull %9) #6
  call void @llvm.lifetime.end.p0(i64 4, ptr nonnull %8) #6
  call void @llvm.lifetime.end.p0(i64 4, ptr nonnull %7) #6
  call void @llvm.lifetime.end.p0(i64 4, ptr nonnull %6) #6
  call void @llvm.lifetime.end.p0(i64 4, ptr nonnull %5) #6
  call void @llvm.lifetime.end.p0(i64 4, ptr nonnull %4) #6
  call void @llvm.lifetime.end.p0(i64 4, ptr nonnull %3) #6
  call void @llvm.lifetime.end.p0(i64 4, ptr nonnull %2) #6
  %43 = call i64 @strlen(ptr noundef nonnull dereferenceable(1) %42) #7
  %44 = call ptr @ff_subtitles_queue_insert(ptr noundef %13, ptr noundef nonnull %42, i64 noundef %43, i32 noundef 0) #6
  %.not30.not = icmp eq ptr %44, null
  br i1 %.not30.not, label %.critedge.thread, label %45

.critedge.thread:                                 ; preds = %get_pts.exit
  call void @llvm.lifetime.end.p0(i64 4096, ptr nonnull %11) #6
  br label %73

45:                                               ; preds = %get_pts.exit
  %46 = zext i32 %40 to i64
  %47 = sext i32 %34 to i64
  %48 = mul nsw i64 %47, 60
  %49 = sext i32 %33 to i64
  %50 = mul nsw i64 %49, 3600
  %51 = add nsw i64 %48, %50
  %52 = sext i32 %35 to i64
  %53 = add nsw i64 %51, %52
  %54 = mul nsw i64 %53, 100
  %55 = sext i32 %36 to i64
  %56 = add nsw i64 %54, %55
  %57 = sub nsw i64 %46, %56
  %58 = zext i32 %38 to i64
  %59 = mul nuw nsw i64 %58, 60
  %60 = zext i32 %37 to i64
  %61 = mul nuw nsw i64 %60, 3600
  %62 = add nuw nsw i64 %59, %61
  %63 = zext i32 %39 to i64
  %64 = add nuw nsw i64 %62, %63
  %65 = mul nuw nsw i64 %64, 100
  %66 = add nsw i64 %57, %65
  %67 = getelementptr inbounds nuw i8, ptr %44, i64 72
  store i64 %23, ptr %67, align 8, !tbaa !43
  %68 = getelementptr inbounds nuw i8, ptr %44, i64 8
  store i64 %56, ptr %68, align 8, !tbaa !44
  %sext = shl i64 %66, 32
  %69 = ashr exact i64 %sext, 32
  %70 = getelementptr inbounds nuw i8, ptr %44, i64 64
  store i64 %69, ptr %70, align 8, !tbaa !45
  br label %.critedge

.critedge:                                        ; preds = %get_pts.exit.thread, %45
  call void @llvm.lifetime.end.p0(i64 4096, ptr nonnull %11) #6
  %71 = load ptr, ptr %19, align 8, !tbaa !41
  %72 = call i32 @avio_feof(ptr noundef %71) #6
  %.not27 = icmp eq i32 %72, 0
  br i1 %.not27, label %.lr.ph, label %.loopexit

.loopexit:                                        ; preds = %.critedge, %15, %.critedge.thread41
  call void @ff_subtitles_queue_finalize(ptr noundef nonnull %0, ptr noundef %13) #6
  br label %73

73:                                               ; preds = %.critedge.thread, %1, %.loopexit
  %.0 = phi i32 [ 0, %.loopexit ], [ -12, %1 ], [ -12, %.critedge.thread ]
  ret i32 %.0
}